target datalayout = "e-m:e-p270:32:32-p271:32:32-p272:64:64-i64:64-i128:128-f80:128-n8:16:32:64-S128"
target triple = "x86_64-unknown-linux-gnu"

%"class.std::basic_ios" = type { %"class.std::ios_base", ptr, i8, i8, ptr, ptr, ptr, ptr }
%"class.std::ios_base" = type { ptr, i64, i64, i32, i32, i32, ptr, %"struct.std::ios_base::_Words", [8 x %"struct.std::ios_base::_Words"], i32, ptr, %"class.std::locale" }
%"struct.std::ios_base::_Words" = type { ptr, i64 }
%"class.std::locale" = type { ptr }
%"class.std::__cxx11::basic_string" = type { %"struct.std::__cxx11::basic_string<char>::_Alloc_hider", i64, %union.anon }
%"struct.std::__cxx11::basic_string<char>::_Alloc_hider" = type { ptr }
%union.anon = type { i64, [8 x i8] }
%"class.std::__cxx11::basic_ostringstream" = type { %"class.std::basic_ostream.base", %"class.std::__cxx11::basic_stringbuf", %"class.std::basic_ios" }
%"class.std::basic_ostream.base" = type { ptr }
%"class.std::__cxx11::basic_stringbuf" = type { %"class.std::basic_streambuf", i32, %"class.std::__cxx11::basic_string" }
%"class.std::basic_streambuf" = type { ptr, ptr, ptr, ptr, ptr, ptr, ptr, %"class.std::locale" }
%"struct.std::__detail::_Node_const_iterator" = type { %"struct.std::__detail::_Node_iterator_base" }
%"struct.std::__detail::_Node_iterator_base" = type { ptr }
%"class.std::unordered_map" = type { %"class.std::_Hashtable" }
%"class.std::_Hashtable" = type { ptr, i64, %"struct.std::__detail::_Hash_node_base", i64, %"struct.std::__detail::_Prime_rehash_policy", ptr }
%"struct.std::__detail::_Hash_node_base" = type { ptr }
%"struct.std::__detail::_Prime_rehash_policy" = type { float, i64 }
%"struct.std::pair" = type { i8, i64 }
%"union.std::aligned_storage<16, 8>::type" = type { [16 x i8] }
%"struct.std::__detail::_Hash_node_value_base.613" = type { %"struct.__gnu_cxx::__aligned_buffer.614" }
%"struct.__gnu_cxx::__aligned_buffer.614" = type { %"union.std::aligned_storage<16, 8>::type" }

; Function Attrs: mustprogress nounwind uwtable
define linkonce_odr dso_local noundef ptr @_ZN9__gnu_cxx16__aligned_bufferISt4pairIKcmEE7_M_addrEv(ptr noundef nonnull align 8 dereferenceable(16) %this) #5 comdat align 2 {
entry:
  %this.addr = alloca ptr, align 8
  store ptr %this, ptr %this.addr, align 8
  %this1 = load ptr, ptr %this.addr, align 8
  %_M_storage = getelementptr inbounds %"struct.__gnu_cxx::__aligned_buffer.614", ptr %this1, i32 0, i32 0
  ret ptr %_M_storage
}

; Function Attrs: mustprogress nounwind uwtable
define linkonce_odr dso_local noundef ptr @_ZN9__gnu_cxx16__aligned_bufferISt4pairIKcmEE6_M_ptrEv(ptr noundef nonnull align 8 dereferenceable(16) %this) #5 comdat align 2 {
entry:
  %this.addr = alloca ptr, align 8
  store ptr %this, ptr %this.addr, align 8
  %this1 = load ptr, ptr %this.addr, align 8
  %call = call noundef ptr @_ZN9__gnu_cxx16__aligned_bufferISt4pairIKcmEE7_M_addrEv(ptr noundef nonnull align 8 dereferenceable(16) %this1) #3
  ret ptr %call
}

; Function Attrs: mustprogress nounwind uwtable
define linkonce_odr dso_local void @_ZNSt8__detail19_Node_iterator_baseISt4pairIKcmELb0EEC2EPNS_10_Hash_nodeIS3_Lb0EEE(ptr noundef nonnull align 8 dereferenceable(8) %this, ptr noundef %__p) unnamed_addr #5 comdat align 2 {
entry:
  %this.addr = alloca ptr, align 8
  %__p.addr = alloca ptr, align 8
  store ptr %this, ptr %this.addr, align 8
  store ptr %__p, ptr %__p.addr, align 8
  %this1 = load ptr, ptr %this.addr, align 8
  %_M_cur = getelementptr inbounds %"struct.std::__detail::_Node_iterator_base", ptr %this1, i32 0, i32 0
  %0 = load ptr, ptr %__p.addr, align 8
  store ptr %0, ptr %_M_cur, align 8
  ret void
}

; Function Attrs: mustprogress nounwind uwtable
define linkonce_odr dso_local noundef ptr @_ZNKSt8__detail10_Hash_nodeISt4pairIKcmELb0EE7_M_nextEv(ptr noundef nonnull align 8 dereferenceable(24) %this) #5 comdat align 2 {
entry:
  %this.addr = alloca ptr, align 8
  store ptr %this, ptr %this.addr, align 8
  %this1 = load ptr, ptr %this.addr, align 8
  %_M_nxt = getelementptr inbounds %"struct.std::__detail::_Hash_node_base", ptr %this1, i32 0, i32 0
  %0 = load ptr, ptr %_M_nxt, align 8
  ret ptr %0
}

; Function Attrs: mustprogress nounwind uwtable
define linkonce_odr dso_local noundef ptr @_ZNSt8__detail21_Hash_node_value_baseISt4pairIKcmEE9_M_valptrEv(ptr noundef nonnull align 8 dereferenceable(16) %this) #5 comdat align 2 {
entry:
  %this.addr = alloca ptr, align 8
  store ptr %this, ptr %this.addr, align 8
  %this1 = load ptr, ptr %this.addr, align 8
  %_M_storage = getelementptr inbounds %"struct.std::__detail::_Hash_node_value_base.613", ptr %this1, i32 0, i32 0
  %call = call noundef ptr @_ZN9__gnu_cxx16__aligned_bufferISt4pairIKcmEE6_M_ptrEv(ptr noundef nonnull align 8 dereferenceable(16) %_M_storage) #3
  ret ptr %call
}

; Function Attrs: mustprogress nounwind uwtable
define linkonce_odr dso_local void @_ZNSt8__detail20_Node_const_iteratorISt4pairIKcmELb0ELb0EEC2EPNS_10_Hash_nodeIS3_Lb0EEE(ptr noundef nonnull align 8 dereferenceable(8) %this, ptr noundef %__p) unnamed_addr #5 comdat align 2 {
entry:
  %this.addr = alloca ptr, align 8
  %__p.addr = alloca ptr, align 8
  store ptr %this, ptr %this.addr, align 8
  store ptr %__p, ptr %__p.addr, align 8
  %this1 = load ptr, ptr %this.addr, align 8
  %0 = load ptr, ptr %__p.addr, align 8
  call void @_ZNSt8__detail19_Node_iterator_baseISt4pairIKcmELb0EEC2EPNS_10_Hash_nodeIS3_Lb0EEE(ptr noundef nonnull align 8 dereferenceable(8) %this1, ptr noundef %0) #3
  ret void
}

; Function Attrs: mustprogress nounwind uwtable
define linkonce_odr dso_local noundef ptr @_ZNKSt10_HashtableIcSt4pairIKcmESaIS2_ENSt8__detail10_Select1stESt8equal_toIcESt4hashIcENS4_18_Mod_range_hashingENS4_20_Default_ranged_hashENS4_20_Prime_rehash_policyENS4_17_Hashtable_traitsILb0ELb0ELb1EEEE8_M_beginEv(ptr noundef nonnull align 8 dereferenceable(56) %this) #5 comdat align 2 {
entry:
  %this.addr = alloca ptr, align 8
  store ptr %this, ptr %this.addr, align 8
  %this1 = load ptr, ptr %this.addr, align 8
  %_M_before_begin = getelementptr inbounds %"class.std::_Hashtable", ptr %this1, i32 0, i32 2
  %_M_nxt = getelementptr inbounds %"struct.std::__detail::_Hash_node_base", ptr %_M_before_begin, i32 0, i32 0
  %0 = load ptr, ptr %_M_nxt, align 8
  ret ptr %0
}

; Function Attrs: mustprogress nounwind uwtable
define linkonce_odr dso_local void @_ZNSt8__detail19_Node_iterator_baseISt4pairIKcmELb0EE7_M_incrEv(ptr noundef nonnull align 8 dereferenceable(8) %this) #5 comdat align 2 {
entry:
  %this.addr = alloca ptr, align 8
  store ptr %this, ptr %this.addr, align 8
  %this1 = load ptr, ptr %this.addr, align 8
  %_M_cur = getelementptr inbounds %"struct.std::__detail::_Node_iterator_base", ptr %this1, i32 0, i32 0
  %0 = load ptr, ptr %_M_cur, align 8
  %call = call noundef ptr @_ZNKSt8__detail10_Hash_nodeISt4pairIKcmELb0EE7_M_nextEv(ptr noundef nonnull align 8 dereferenceable(24) %0) #3
  %_M_cur2 = getelementptr inbounds %"struct.std::__detail::_Node_iterator_base", ptr %this1, i32 0, i32 0
  store ptr %call, ptr %_M_cur2, align 8
  ret void
}

; Function Attrs: mustprogress nounwind uwtable
define linkonce_odr dso_local noundef nonnull align 8 dereferenceable(8) ptr @_ZNSt10__pair_getILm1EE11__const_getIKcmEERKT0_RKSt4pairIT_S3_E(ptr noundef nonnull align 8 dereferenceable(16) %__pair) #5 comdat align 2 {
entry:
  %__pair.addr = alloca ptr, align 8
  store ptr %__pair, ptr %__pair.addr, align 8
  %0 = load ptr, ptr %__pair.addr, align 8
  %second = getelementptr inbounds %"struct.std::pair", ptr %0, i32 0, i32 1
  ret ptr %second
}

; Function Attrs: mustprogress nounwind uwtable
define linkonce_odr dso_local noundef nonnull align 1 dereferenceable(1) ptr @_ZNSt10__pair_getILm0EE11__const_getIKcmEERKT_RKSt4pairIS3_T0_E(ptr noundef nonnull align 8 dereferenceable(16) %__pair) #5 comdat align 2 {
entry:
  %__pair.addr = alloca ptr, align 8
  store ptr %__pair, ptr %__pair.addr, align 8
  %0 = load ptr, ptr %__pair.addr, align 8
  %first = getelementptr inbounds %"struct.std::pair", ptr %0, i32 0, i32 0
  ret ptr %first
}

; Function Attrs: mustprogress nounwind uwtable
define linkonce_odr dso_local noundef nonnull align 8 dereferenceable(16) ptr @_ZNSt8__detail21_Hash_node_value_baseISt4pairIKcmEE4_M_vEv(ptr noundef nonnull align 8 dereferenceable(16) %this) #5 comdat align 2 {
entry:
  %this.addr = alloca ptr, align 8
  store ptr %this, ptr %this.addr, align 8
  %this1 = load ptr, ptr %this.addr, align 8
  %call = call noundef ptr @_ZNSt8__detail21_Hash_node_value_baseISt4pairIKcmEE9_M_valptrEv(ptr noundef nonnull align 8 dereferenceable(16) %this1) #3
  ret ptr %call
}

; Function Attrs: mustprogress nounwind uwtable
define linkonce_odr dso_local ptr @_ZNKSt10_HashtableIcSt4pairIKcmESaIS2_ENSt8__detail10_Select1stESt8equal_toIcESt4hashIcENS4_18_Mod_range_hashingENS4_20_Default_ranged_hashENS4_20_Prime_rehash_policyENS4_17_Hashtable_traitsILb0ELb0ELb1EEEE3endEv(ptr noundef nonnull align 8 dereferenceable(56) %this) #5 comdat align 2 {
entry:
  %retval = alloca %"struct.std::__detail::_Node_const_iterator", align 8
  %this.addr = alloca ptr, align 8
  store ptr %this, ptr %this.addr, align 8
  call void @_ZNSt8__detail20_Node_const_iteratorISt4pairIKcmELb0ELb0EEC2EPNS_10_Hash_nodeIS3_Lb0EEE(ptr noundef nonnull align 8 dereferenceable(8) %retval, ptr noundef null) #3
  %coerce.dive = getelementptr inbounds %"struct.std::__detail::_Node_const_iterator", ptr %retval, i32 0, i32 0
  %coerce.dive2 = getelementptr inbounds %"struct.std::__detail::_Node_iterator_base", ptr %coerce.dive, i32 0, i32 0
  %0 = load ptr, ptr %coerce.dive2, align 8
  ret ptr %0
}

; Function Attrs: mustprogress nounwind uwtable
define linkonce_odr dso_local ptr @_ZNKSt10_HashtableIcSt4pairIKcmESaIS2_ENSt8__detail10_Select1stESt8equal_toIcESt4hashIcENS4_18_Mod_range_hashingENS4_20_Default_ranged_hashENS4_20_Prime_rehash_policyENS4_17_Hashtable_traitsILb0ELb0ELb1EEEE5beginEv(ptr noundef nonnull align 8 dereferenceable(56) %this) #5 comdat align 2 {
entry:
  %retval = alloca %"struct.std::__detail::_Node_const_iterator", align 8
  %this.addr = alloca ptr, align 8
  store ptr %this, ptr %this.addr, align 8
  %this1 = load ptr, ptr %this.addr, align 8
  %call = call noundef ptr @_ZNKSt10_HashtableIcSt4pairIKcmESaIS2_ENSt8__detail10_Select1stESt8equal_toIcESt4hashIcENS4_18_Mod_range_hashingENS4_20_Default_ranged_hashENS4_20_Prime_rehash_policyENS4_17_Hashtable_traitsILb0ELb0ELb1EEEE8_M_beginEv(ptr noundef nonnull align 8 dereferenceable(56) %this1)
  call void @_ZNSt8__detail20_Node_const_iteratorISt4pairIKcmELb0ELb0EEC2EPNS_10_Hash_nodeIS3_Lb0EEE(ptr noundef nonnull align 8 dereferenceable(8) %retval, ptr noundef %call) #3
  %coerce.dive = getelementptr inbounds %"struct.std::__detail::_Node_const_iterator", ptr %retval, i32 0, i32 0
  %coerce.dive2 = getelementptr inbounds %"struct.std::__detail::_Node_iterator_base", ptr %coerce.dive, i32 0, i32 0
  %0 = load ptr, ptr %coerce.dive2, align 8
  ret ptr %0
}

; Function Attrs: mustprogress nounwind uwtable
define linkonce_odr dso_local noundef nonnull align 8 dereferenceable(8) ptr @_ZNSt8__detail20_Node_const_iteratorISt4pairIKcmELb0ELb0EEppEv(ptr noundef nonnull align 8 dereferenceable(8) %this) #5 comdat align 2 {
entry:
  %this.addr = alloca ptr, align 8
  store ptr %this, ptr %this.addr, align 8
  %this1 = load ptr, ptr %this.addr, align 8
  call void @_ZNSt8__detail19_Node_iterator_baseISt4pairIKcmELb0EE7_M_incrEv(ptr noundef nonnull align 8 dereferenceable(8) %this1) #3
  ret ptr %this1
}

; Function Attrs: mustprogress nounwind uwtable
define linkonce_odr dso_local noundef nonnull align 8 dereferenceable(8) ptr @_ZSt3getILm1EKcmERKNSt13tuple_elementIXT_ESt4pairIT0_T1_EE4typeERKS5_(ptr noundef nonnull align 8 dereferenceable(16) %__in) #5 comdat {
entry:
  %__in.addr = alloca ptr, align 8
  store ptr %__in, ptr %__in.addr, align 8
  %0 = load ptr, ptr %__in.addr, align 8
  %call = call noundef nonnull align 8 dereferenceable(8) ptr @_ZNSt10__pair_getILm1EE11__const_getIKcmEERKT0_RKSt4pairIT_S3_E(ptr noundef nonnull align 8 dereferenceable(16) %0) #3
  ret ptr %call
}

; Function Attrs: mustprogress nounwind uwtable
define linkonce_odr dso_local noundef nonnull align 1 dereferenceable(1) ptr @_ZSt3getILm0EKcmERKNSt13tuple_elementIXT_ESt4pairIT0_T1_EE4typeERKS5_(ptr noundef nonnull align 8 dereferenceable(16) %__in) #5 comdat {
entry:
  %__in.addr = alloca ptr, align 8
  store ptr %__in, ptr %__in.addr, align 8
  %0 = load ptr, ptr %__in.addr, align 8
  %call = call noundef nonnull align 1 dereferenceable(1) ptr @_ZNSt10__pair_getILm0EE11__const_getIKcmEERKT_RKSt4pairIS3_T0_E(ptr noundef nonnull align 8 dereferenceable(16) %0) #3
  ret ptr %call
}

; Function Attrs: mustprogress nounwind uwtable
define linkonce_odr dso_local noundef nonnull align 8 dereferenceable(16) ptr @_ZNKSt8__detail20_Node_const_iteratorISt4pairIKcmELb0ELb0EEdeEv(ptr noundef nonnull align 8 dereferenceable(8) %this) #5 comdat align 2 {
entry:
  %this.addr = alloca ptr, align 8
  store ptr %this, ptr %this.addr, align 8
  %this1 = load ptr, ptr %this.addr, align 8
  %_M_cur = getelementptr inbounds %"struct.std::__detail::_Node_iterator_base", ptr %this1, i32 0, i32 0
  %0 = load ptr, ptr %_M_cur, align 8
  %add.ptr = getelementptr inbounds i8, ptr %0, i64 8
  %call = call noundef nonnull align 8 dereferenceable(16) ptr @_ZNSt8__detail21_Hash_node_value_baseISt4pairIKcmEE4_M_vEv(ptr noundef nonnull align 8 dereferenceable(16) %add.ptr) #3
  ret ptr %call
}

; Function Attrs: mustprogress nounwind uwtable
define linkonce_odr dso_local noundef zeroext i1 @_ZNSt8__detailneERKNS_19_Node_iterator_baseISt4pairIKcmELb0EEES6_(ptr noundef nonnull align 8 dereferenceable(8) %__x, ptr noundef nonnull align 8 dereferenceable(8) %__y) #5 comdat {
entry:
  %__x.addr = alloca ptr, align 8
  %__y.addr = alloca ptr, align 8
  store ptr %__x, ptr %__x.addr, align 8
  store ptr %__y, ptr %__y.addr, align 8
  %0 = load ptr, ptr %__x.addr, align 8
  %_M_cur = getelementptr inbounds %"struct.std::__detail::_Node_iterator_base", ptr %0, i32 0, i32 0
  %1 = load ptr, ptr %_M_cur, align 8
  %2 = load ptr, ptr %__y.addr, align 8
  %_M_cur1 = getelementptr inbounds %"struct.std::__detail::_Node_iterator_base", ptr %2, i32 0, i32 0
  %3 = load ptr, ptr %_M_cur1, align 8
  %cmp = icmp ne ptr %1, %3
  ret i1 %cmp
}

; Function Attrs: mustprogress nounwind uwtable
define linkonce_odr dso_local ptr @_ZNKSt13unordered_mapIcmSt4hashIcESt8equal_toIcESaISt4pairIKcmEEE3endEv(ptr noundef nonnull align 8 dereferenceable(56) %this) #5 comdat align 2 {
entry:
  %retval = alloca %"struct.std::__detail::_Node_const_iterator", align 8
  %this.addr = alloca ptr, align 8
  store ptr %this, ptr %this.addr, align 8
  %this1 = load ptr, ptr %this.addr, align 8
  %_M_h = getelementptr inbounds %"class.std::unordered_map", ptr %this1, i32 0, i32 0
  %call = call ptr @_ZNKSt10_HashtableIcSt4pairIKcmESaIS2_ENSt8__detail10_Select1stESt8equal_toIcESt4hashIcENS4_18_Mod_range_hashingENS4_20_Default_ranged_hashENS4_20_Prime_rehash_policyENS4_17_Hashtable_traitsILb0ELb0ELb1EEEE3endEv(ptr noundef nonnull align 8 dereferenceable(56) %_M_h) #3
  %coerce.dive = getelementptr inbounds %"struct.std::__detail::_Node_const_iterator", ptr %retval, i32 0, i32 0
  %coerce.dive2 = getelementptr inbounds %"struct.std::__detail::_Node_iterator_base", ptr %coerce.dive, i32 0, i32 0
  store ptr %call, ptr %coerce.dive2, align 8
  %coerce.dive3 = getelementptr inbounds %"struct.std::__detail::_Node_const_iterator", ptr %retval, i32 0, i32 0
  %coerce.dive4 = getelementptr inbounds %"struct.std::__detail::_Node_iterator_base", ptr %coerce.dive3, i32 0, i32 0
  %0 = load ptr, ptr %coerce.dive4, align 8
  ret ptr %0
}

; Function Attrs: mustprogress nounwind uwtable
define linkonce_odr dso_local ptr @_ZNKSt13unordered_mapIcmSt4hashIcESt8equal_toIcESaISt4pairIKcmEEE5beginEv(ptr noundef nonnull align 8 dereferenceable(56) %this) #5 comdat align 2 {
entry:
  %retval = alloca %"struct.std::__detail::_Node_const_iterator", align 8
  %this.addr = alloca ptr, align 8
  store ptr %this, ptr %this.addr, align 8
  %this1 = load ptr, ptr %this.addr, align 8
  %_M_h = getelementptr inbounds %"class.std::unordered_map", ptr %this1, i32 0, i32 0
  %call = call ptr @_ZNKSt10_HashtableIcSt4pairIKcmESaIS2_ENSt8__detail10_Select1stESt8equal_toIcESt4hashIcENS4_18_Mod_range_hashingENS4_20_Default_ranged_hashENS4_20_Prime_rehash_policyENS4_17_Hashtable_traitsILb0ELb0ELb1EEEE5beginEv(ptr noundef nonnull align 8 dereferenceable(56) %_M_h) #3
  %coerce.dive = getelementptr inbounds %"struct.std::__detail::_Node_const_iterator", ptr %retval, i32 0, i32 0
  %coerce.dive2 = getelementptr inbounds %"struct.std::__detail::_Node_iterator_base", ptr %coerce.dive, i32 0, i32 0
  store ptr %call, ptr %coerce.dive2, align 8
  %coerce.dive3 = getelementptr inbounds %"struct.std::__detail::_Node_const_iterator", ptr %retval, i32 0, i32 0
  %coerce.dive4 = getelementptr inbounds %"struct.std::__detail::_Node_iterator_base", ptr %coerce.dive3, i32 0, i32 0
  %0 = load ptr, ptr %coerce.dive4, align 8
  ret ptr %0
}

; Function Attrs: mustprogress uwtable
define dso_local void @_Z10format_mapB5cxx11RKSt13unordered_mapIcmSt4hashIcESt8equal_toIcESaISt4pairIKcmEEE(ptr noalias sret(%"class.std::__cxx11::basic_string") align 8 %agg.result, ptr noundef nonnull align 8 dereferenceable(56) %map) #4 personality ptr @__gxx_personality_v0 {
entry:
  %result.ptr = alloca ptr, align 8
  %map.addr = alloca ptr, align 8
  %oss = alloca %"class.std::__cxx11::basic_ostringstream", align 8
  %__range1 = alloca ptr, align 8
  %__begin1 = alloca %"struct.std::__detail::_Node_const_iterator", align 8
  %__end1 = alloca %"struct.std::__detail::_Node_const_iterator", align 8
  %0 = alloca ptr, align 8
  %i = alloca ptr, align 8
  %j = alloca ptr, align 8
  %exn.slot = alloca ptr, align 8
  %ehselector.slot = alloca i32, align 4
  store ptr %agg.result, ptr %result.ptr, align 8
  store ptr %map, ptr %map.addr, align 8
  call void @_ZNSt7__cxx1119basic_ostringstreamIcSt11char_traitsIcESaIcEEC1Ev(ptr noundef nonnull align 8 dereferenceable(112) %oss)
  %1 = load ptr, ptr %map.addr, align 8
  store ptr %1, ptr %__range1, align 8
  %2 = load ptr, ptr %__range1, align 8
  %call = call ptr @_ZNKSt13unordered_mapIcmSt4hashIcESt8equal_toIcESaISt4pairIKcmEEE5beginEv(ptr noundef nonnull align 8 dereferenceable(56) %2) #3
  %coerce.dive = getelementptr inbounds %"struct.std::__detail::_Node_const_iterator", ptr %__begin1, i32 0, i32 0
  %coerce.dive1 = getelementptr inbounds %"struct.std::__detail::_Node_iterator_base", ptr %coerce.dive, i32 0, i32 0
  store ptr %call, ptr %coerce.dive1, align 8
  %3 = load ptr, ptr %__range1, align 8
  %call2 = call ptr @_ZNKSt13unordered_mapIcmSt4hashIcESt8equal_toIcESaISt4pairIKcmEEE3endEv(ptr noundef nonnull align 8 dereferenceable(56) %3) #3
  %coerce.dive3 = getelementptr inbounds %"struct.std::__detail::_Node_const_iterator", ptr %__end1, i32 0, i32 0
  %coerce.dive4 = getelementptr inbounds %"struct.std::__detail::_Node_iterator_base", ptr %coerce.dive3, i32 0, i32 0
  store ptr %call2, ptr %coerce.dive4, align 8
  br label %for.cond

for.cond:                                         ; preds = %for.inc, %entry
  %call5 = call noundef zeroext i1 @_ZNSt8__detailneERKNS_19_Node_iterator_baseISt4pairIKcmELb0EEES6_(ptr noundef nonnull align 8 dereferenceable(8) %__begin1, ptr noundef nonnull align 8 dereferenceable(8) %__end1) #3
  br i1 %call5, label %for.body, label %for.end

for.body:                                         ; preds = %for.cond
  %call6 = call noundef nonnull align 8 dereferenceable(16) ptr @_ZNKSt8__detail20_Node_const_iteratorISt4pairIKcmELb0ELb0EEdeEv(ptr noundef nonnull align 8 dereferenceable(8) %__begin1) #3
  store ptr %call6, ptr %0, align 8
  %4 = load ptr, ptr %0, align 8
  %call7 = call noundef nonnull align 1 dereferenceable(1) ptr @_ZSt3getILm0EKcmERKNSt13tuple_elementIXT_ESt4pairIT0_T1_EE4typeERKS5_(ptr noundef nonnull align 8 dereferenceable(16) %4) #3
  store ptr %call7, ptr %i, align 8
  %5 = load ptr, ptr %0, align 8
  %call8 = call noundef nonnull align 8 dereferenceable(8) ptr @_ZSt3getILm1EKcmERKNSt13tuple_elementIXT_ESt4pairIT0_T1_EE4typeERKS5_(ptr noundef nonnull align 8 dereferenceable(16) %5) #3
  store ptr %call8, ptr %j, align 8
  %6 = load ptr, ptr %i, align 8
  %7 = load i8, ptr %6, align 1
  %call9 = invoke noundef nonnull align 8 dereferenceable(8) ptr @_ZStlsISt11char_traitsIcEERSt13basic_ostreamIcT_ES5_c(ptr noundef nonnull align 8 dereferenceable(8) %oss, i8 noundef signext %7)
          to label %invoke.cont unwind label %lpad

invoke.cont:                                      ; preds = %for.body
  %call11 = invoke noundef nonnull align 8 dereferenceable(8) ptr @_ZStlsISt11char_traitsIcEERSt13basic_ostreamIcT_ES5_c(ptr noundef nonnull align 8 dereferenceable(8) %call9, i8 noundef signext 58)
          to label %invoke.cont10 unwind label %lpad

invoke.cont10:                                    ; preds = %invoke.cont
  %8 = load ptr, ptr %j, align 8
  %9 = load i64, ptr %8, align 8
  %call13 = invoke noundef nonnull align 8 dereferenceable(8) ptr @_ZNSolsEm(ptr noundef nonnull align 8 dereferenceable(8) %call11, i64 noundef %9)
          to label %invoke.cont12 unwind label %lpad

invoke.cont12:                                    ; preds = %invoke.cont10
  %call15 = invoke noundef nonnull align 8 dereferenceable(8) ptr @_ZStlsISt11char_traitsIcEERSt13basic_ostreamIcT_ES5_c(ptr noundef nonnull align 8 dereferenceable(8) %call13, i8 noundef signext 32)
          to label %invoke.cont14 unwind label %lpad

invoke.cont14:                                    ; preds = %invoke.cont12
  br label %for.inc

for.inc:                                          ; preds = %invoke.cont14
  %call16 = call noundef nonnull align 8 dereferenceable(8) ptr @_ZNSt8__detail20_Node_const_iteratorISt4pairIKcmELb0ELb0EEppEv(ptr noundef nonnull align 8 dereferenceable(8) %__begin1) #3
  br label %for.cond

lpad:                                             ; preds = %for.end, %invoke.cont12, %invoke.cont10, %invoke.cont, %for.body
  %10 = landingpad { ptr, i32 }
          cleanup
  %11 = extractvalue { ptr, i32 } %10, 0
  store ptr %11, ptr %exn.slot, align 8
  %12 = extractvalue { ptr, i32 } %10, 1
  store i32 %12, ptr %ehselector.slot, align 4
  call void @_ZNSt7__cxx1119basic_ostringstreamIcSt11char_traitsIcESaIcEED1Ev(ptr noundef nonnull align 8 dereferenceable(112) %oss) #3
  br label %eh.resume

for.end:                                          ; preds = %for.cond
  invoke void @_ZNKSt7__cxx1119basic_ostringstreamIcSt11char_traitsIcESaIcEE3strEv(ptr sret(%"class.std::__cxx11::basic_string") align 8 %agg.result, ptr noundef nonnull align 8 dereferenceable(112) %oss)
          to label %invoke.cont17 unwind label %lpad

invoke.cont17:                                    ; preds = %for.end
  call void @_ZNSt7__cxx1119basic_ostringstreamIcSt11char_traitsIcESaIcEED1Ev(ptr noundef nonnull align 8 dereferenceable(112) %oss) #3
  ret void

eh.resume:                                        ; preds = %lpad
  %exn = load ptr, ptr %exn.slot, align 8
  %sel = load i32, ptr %ehselector.slot, align 4
  %lpad.val = insertvalue { ptr, i32 } poison, ptr %exn, 0
  %lpad.val18 = insertvalue { ptr, i32 } %lpad.val, i32 %sel, 1
  resume { ptr, i32 } %lpad.val18
}