; Function Attrs: mustprogress uwtable
define dso_local void @_Z10format_mapB5cxx11RKSt13unordered_mapIcmSt4hashIcESt8equal_toIcESaISt4pairIKcmEEE(ptr noalias sret(%"class.std::__cxx11::basic_string") align 8 %agg.result, ptr nocapture noundef nonnull readonly align 8 dereferenceable(56) %map) local_unnamed_addr #5 personality ptr @__gxx_personality_v0 {
entry:
  %oss = alloca %"class.std::__cxx11::basic_ostringstream", align 8
  call void @_ZNSt7__cxx1119basic_ostringstreamIcSt11char_traitsIcESaIcEEC1Ev(ptr noundef nonnull align 8 dereferenceable(112) %oss)
  %_M_before_begin.i.i.i = getelementptr inbounds i8, ptr %map, i64 16
  br label %for.cond

for.cond:                                         ; preds = %invoke.cont12, %entry
  %__begin1.sroa.0.0.in = phi ptr [ %_M_before_begin.i.i.i, %entry ], [ %__begin1.sroa.0.0, %invoke.cont12 ]
  %__begin1.sroa.0.0 = load ptr, ptr %__begin1.sroa.0.0.in, align 8
  %cmp.i.not = icmp eq ptr %__begin1.sroa.0.0, null
  br i1 %cmp.i.not, label %for.end, label %for.body

for.body:                                         ; preds = %for.cond
  %add.ptr.i = getelementptr inbounds i8, ptr %__begin1.sroa.0.0, i64 8
  %second.i.i = getelementptr inbounds i8, ptr %__begin1.sroa.0.0, i64 16
  %0 = load i8, ptr %add.ptr.i, align 1
  %call9 = invoke noundef nonnull align 8 dereferenceable(8) ptr @_ZStlsISt11char_traitsIcEERSt13basic_ostreamIcT_ES5_c(ptr noundef nonnull align 8 dereferenceable(8) %oss, i8 noundef signext %0)
          to label %invoke.cont unwind label %lpad.loopexit

invoke.cont:                                      ; preds = %for.body
  %call11 = invoke noundef nonnull align 8 dereferenceable(8) ptr @_ZStlsISt11char_traitsIcEERSt13basic_ostreamIcT_ES5_c(ptr noundef nonnull align 8 dereferenceable(8) %call9, i8 noundef signext 58)
          to label %invoke.cont10 unwind label %lpad.loopexit

invoke.cont10:                                    ; preds = %invoke.cont
  %1 = load i64, ptr %second.i.i, align 8
  %call13 = invoke noundef nonnull align 8 dereferenceable(8) ptr @_ZNSolsEm(ptr noundef nonnull align 8 dereferenceable(8) %call11, i64 noundef %1)
          to label %invoke.cont12 unwind label %lpad.loopexit

invoke.cont12:                                    ; preds = %invoke.cont10
  %call15 = invoke noundef nonnull align 8 dereferenceable(8) ptr @_ZStlsISt11char_traitsIcEERSt13basic_ostreamIcT_ES5_c(ptr noundef nonnull align 8 dereferenceable(8) %call13, i8 noundef signext 32)
          to label %for.cond unwind label %lpad.loopexit

lpad.loopexit:                                    ; preds = %for.body, %invoke.cont, %invoke.cont10, %invoke.cont12
  %lpad.loopexit5 = landingpad { ptr, i32 }
          cleanup
  br label %lpad

lpad.loopexit.split-lp:                           ; preds = %for.end
  %lpad.loopexit.split-lp6 = landingpad { ptr, i32 }
          cleanup
  br label %lpad

lpad:                                             ; preds = %lpad.loopexit.split-lp, %lpad.loopexit
  %lpad.phi = phi { ptr, i32 } [ %lpad.loopexit5, %lpad.loopexit ], [ %lpad.loopexit.split-lp6, %lpad.loopexit.split-lp ]
  call void @_ZNSt7__cxx1119basic_ostringstreamIcSt11char_traitsIcESaIcEED1Ev(ptr noundef nonnull align 8 dereferenceable(112) %oss) #30
  resume { ptr, i32 } %lpad.phi

for.end:                                          ; preds = %for.cond
  invoke void @_ZNKSt7__cxx1119basic_ostringstreamIcSt11char_traitsIcESaIcEE3strEv(ptr sret(%"class.std::__cxx11::basic_string") align 8 %agg.result, ptr noundef nonnull align 8 dereferenceable(112) %oss)
          to label %invoke.cont17 unwind label %lpad.loopexit.split-lp

invoke.cont17:                                    ; preds = %for.end
  call void @_ZNSt7__cxx1119basic_ostringstreamIcSt11char_traitsIcESaIcEED1Ev(ptr noundef nonnull align 8 dereferenceable(112) %oss) #30
  ret void
}